target datalayout = "e-m:e-p270:32:32-p271:32:32-p272:64:64-i64:64-i128:128-f80:128-n8:16:32:64-S128"
target triple = "x86_64-pc-linux-gnu"

%struct._zval_struct = type { %union._zend_value, %union.anon, %union.anon.2 }
%union._zend_value = type { i64 }
%union.anon = type { i32 }
%union.anon.2 = type { i32 }
%struct._zend_refcounted_h = type { i32, %union.anon.3 }
%union.anon.3 = type { i32 }
%struct._xmlNode = type { ptr, i32, ptr, ptr, ptr, ptr, ptr, ptr, ptr, ptr, ptr, ptr, ptr, ptr, i16, i16 }
%struct._zend_string = type { %struct._zend_refcounted_h, i64, i64, [1 x i8] }
%struct._dom_object = type { ptr, ptr, ptr, %struct._zend_object }
%struct._zend_object = type { %struct._zend_refcounted_h, i32, ptr, ptr, ptr, [1 x %struct._zval_struct] }

@.str.25 = private unnamed_addr constant [12 x i8] c"beforebegin\00", align 1
@.str.26 = private unnamed_addr constant [11 x i8] c"afterbegin\00", align 1
@.str.27 = private unnamed_addr constant [10 x i8] c"beforeend\00", align 1
@.str.28 = private unnamed_addr constant [9 x i8] c"afterend\00", align 1

; Function Attrs: nounwind uwtable
define internal ptr @dom_insert_adjacent(ptr noundef %0, ptr noundef %1, ptr noundef %2, ptr noundef %3) #0 {
  %5 = alloca ptr, align 8
  %6 = alloca ptr, align 8
  %7 = alloca ptr, align 8
  %8 = alloca ptr, align 8
  %9 = alloca ptr, align 8
  store ptr %0, ptr %6, align 8
  store ptr %1, ptr %7, align 8
  store ptr %2, ptr %8, align 8
  store ptr %3, ptr %9, align 8
  %10 = load ptr, ptr %6, align 8
  %11 = getelementptr inbounds %struct._zend_string, ptr %10, i32 0, i32 2
  %12 = load i64, ptr %11, align 8
  %13 = icmp eq i64 %12, 11
  br i1 %13, label %14, label %53

14:                                               ; preds = %4
  %15 = load ptr, ptr %6, align 8
  %16 = getelementptr inbounds %struct._zend_string, ptr %15, i32 0, i32 3
  %17 = getelementptr inbounds [1 x i8], ptr %16, i64 0, i64 0
  %18 = load ptr, ptr %6, align 8
  %19 = getelementptr inbounds %struct._zend_string, ptr %18, i32 0, i32 2
  %20 = load i64, ptr %19, align 8
  %21 = call i32 @zend_binary_strcasecmp(ptr noundef %17, i64 noundef %20, ptr noundef @.str.25, i64 noundef 11)
  %22 = icmp ne i32 %21, 0
  br i1 %22, label %53, label %23

23:                                               ; preds = %14
  %24 = load ptr, ptr %7, align 8
  %25 = getelementptr inbounds %struct._xmlNode, ptr %24, i32 0, i32 5
  %26 = load ptr, ptr %25, align 8
  %27 = icmp eq ptr %26, null
  br i1 %27, label %28, label %29

28:                                               ; preds = %23
  store ptr null, ptr %5, align 8
  br label %195

29:                                               ; preds = %23
  %30 = load ptr, ptr %7, align 8
  %31 = getelementptr inbounds %struct._xmlNode, ptr %30, i32 0, i32 5
  %32 = load ptr, ptr %31, align 8
  %33 = load ptr, ptr %9, align 8
  %34 = call i32 @dom_hierarchy(ptr noundef %32, ptr noundef %33)
  %35 = icmp eq i32 %34, -1
  br i1 %35, label %36, label %41

36:                                               ; preds = %29
  %37 = load ptr, ptr %8, align 8
  %38 = getelementptr inbounds %struct._dom_object, ptr %37, i32 0, i32 1
  %39 = load ptr, ptr %38, align 8
  %40 = call i32 @dom_get_strict_error(ptr noundef %39)
  call void @php_dom_throw_error(i32 noundef 3, i32 noundef %40)
  store ptr inttoptr (i64 -1 to ptr), ptr %5, align 8
  br label %195

41:                                               ; preds = %29
  %42 = load ptr, ptr %9, align 8
  %43 = load ptr, ptr %8, align 8
  %44 = load ptr, ptr %7, align 8
  %45 = getelementptr inbounds %struct._xmlNode, ptr %44, i32 0, i32 8
  %46 = load ptr, ptr %45, align 8
  %47 = call zeroext i1 @php_dom_adopt_node(ptr noundef %42, ptr noundef %43, ptr noundef %46)
  br i1 %47, label %49, label %48

48:                                               ; preds = %41
  store ptr inttoptr (i64 -1 to ptr), ptr %5, align 8
  br label %195

49:                                               ; preds = %41
  %50 = load ptr, ptr %7, align 8
  %51 = load ptr, ptr %9, align 8
  %52 = call ptr @xmlAddPrevSibling(ptr noundef %50, ptr noundef %51)
  store ptr %52, ptr %9, align 8
  br label %189

53:                                               ; preds = %14, %4
  %54 = load ptr, ptr %6, align 8
  %55 = getelementptr inbounds %struct._zend_string, ptr %54, i32 0, i32 2
  %56 = load i64, ptr %55, align 8
  %57 = icmp eq i64 %56, 10
  br i1 %57, label %58, label %101

58:                                               ; preds = %53
  %59 = load ptr, ptr %6, align 8
  %60 = getelementptr inbounds %struct._zend_string, ptr %59, i32 0, i32 3
  %61 = getelementptr inbounds [1 x i8], ptr %60, i64 0, i64 0
  %62 = load ptr, ptr %6, align 8
  %63 = getelementptr inbounds %struct._zend_string, ptr %62, i32 0, i32 2
  %64 = load i64, ptr %63, align 8
  %65 = call i32 @zend_binary_strcasecmp(ptr noundef %61, i64 noundef %64, ptr noundef @.str.26, i64 noundef 10)
  %66 = icmp ne i32 %65, 0
  br i1 %66, label %101, label %67

67:                                               ; preds = %58
  %68 = load ptr, ptr %7, align 8
  %69 = load ptr, ptr %9, align 8
  %70 = call i32 @dom_hierarchy(ptr noundef %68, ptr noundef %69)
  %71 = icmp eq i32 %70, -1
  br i1 %71, label %72, label %77

72:                                               ; preds = %67
  %73 = load ptr, ptr %8, align 8
  %74 = getelementptr inbounds %struct._dom_object, ptr %73, i32 0, i32 1
  %75 = load ptr, ptr %74, align 8
  %76 = call i32 @dom_get_strict_error(ptr noundef %75)
  call void @php_dom_throw_error(i32 noundef 3, i32 noundef %76)
  store ptr inttoptr (i64 -1 to ptr), ptr %5, align 8
  br label %195

77:                                               ; preds = %67
  %78 = load ptr, ptr %9, align 8
  %79 = load ptr, ptr %8, align 8
  %80 = load ptr, ptr %7, align 8
  %81 = getelementptr inbounds %struct._xmlNode, ptr %80, i32 0, i32 8
  %82 = load ptr, ptr %81, align 8
  %83 = call zeroext i1 @php_dom_adopt_node(ptr noundef %78, ptr noundef %79, ptr noundef %82)
  br i1 %83, label %85, label %84

84:                                               ; preds = %77
  store ptr inttoptr (i64 -1 to ptr), ptr %5, align 8
  br label %195

85:                                               ; preds = %77
  %86 = load ptr, ptr %7, align 8
  %87 = getelementptr inbounds %struct._xmlNode, ptr %86, i32 0, i32 3
  %88 = load ptr, ptr %87, align 8
  %89 = icmp eq ptr %88, null
  br i1 %89, label %90, label %94

90:                                               ; preds = %85
  %91 = load ptr, ptr %7, align 8
  %92 = load ptr, ptr %9, align 8
  %93 = call ptr @xmlAddChild(ptr noundef %91, ptr noundef %92)
  store ptr %93, ptr %9, align 8
  br label %100

94:                                               ; preds = %85
  %95 = load ptr, ptr %7, align 8
  %96 = getelementptr inbounds %struct._xmlNode, ptr %95, i32 0, i32 3
  %97 = load ptr, ptr %96, align 8
  %98 = load ptr, ptr %9, align 8
  %99 = call ptr @xmlAddPrevSibling(ptr noundef %97, ptr noundef %98)
  store ptr %99, ptr %9, align 8
  br label %100

100:                                              ; preds = %94, %90
  br label %188

101:                                              ; preds = %58, %53
  %102 = load ptr, ptr %6, align 8
  %103 = getelementptr inbounds %struct._zend_string, ptr %102, i32 0, i32 2
  %104 = load i64, ptr %103, align 8
  %105 = icmp eq i64 %104, 9
  br i1 %105, label %106, label %137

106:                                              ; preds = %101
  %107 = load ptr, ptr %6, align 8
  %108 = getelementptr inbounds %struct._zend_string, ptr %107, i32 0, i32 3
  %109 = getelementptr inbounds [1 x i8], ptr %108, i64 0, i64 0
  %110 = load ptr, ptr %6, align 8
  %111 = getelementptr inbounds %struct._zend_string, ptr %110, i32 0, i32 2
  %112 = load i64, ptr %111, align 8
  %113 = call i32 @zend_binary_strcasecmp(ptr noundef %109, i64 noundef %112, ptr noundef @.str.27, i64 noundef 9)
  %114 = icmp ne i32 %113, 0
  br i1 %114, label %137, label %115

115:                                              ; preds = %106
  %116 = load ptr, ptr %7, align 8
  %117 = load ptr, ptr %9, align 8
  %118 = call i32 @dom_hierarchy(ptr noundef %116, ptr noundef %117)
  %119 = icmp eq i32 %118, -1
  br i1 %119, label %120, label %125

120:                                              ; preds = %115
  %121 = load ptr, ptr %8, align 8
  %122 = getelementptr inbounds %struct._dom_object, ptr %121, i32 0, i32 1
  %123 = load ptr, ptr %122, align 8
  %124 = call i32 @dom_get_strict_error(ptr noundef %123)
  call void @php_dom_throw_error(i32 noundef 3, i32 noundef %124)
  store ptr inttoptr (i64 -1 to ptr), ptr %5, align 8
  br label %195

125:                                              ; preds = %115
  %126 = load ptr, ptr %9, align 8
  %127 = load ptr, ptr %8, align 8
  %128 = load ptr, ptr %7, align 8
  %129 = getelementptr inbounds %struct._xmlNode, ptr %128, i32 0, i32 8
  %130 = load ptr, ptr %129, align 8
  %131 = call zeroext i1 @php_dom_adopt_node(ptr noundef %126, ptr noundef %127, ptr noundef %130)
  br i1 %131, label %133, label %132

132:                                              ; preds = %125
  store ptr inttoptr (i64 -1 to ptr), ptr %5, align 8
  br label %195

133:                                              ; preds = %125
  %134 = load ptr, ptr %7, align 8
  %135 = load ptr, ptr %9, align 8
  %136 = call ptr @xmlAddChild(ptr noundef %134, ptr noundef %135)
  store ptr %136, ptr %9, align 8
  br label %187

137:                                              ; preds = %106, %101
  %138 = load ptr, ptr %6, align 8
  %139 = getelementptr inbounds %struct._zend_string, ptr %138, i32 0, i32 2
  %140 = load i64, ptr %139, align 8
  %141 = icmp eq i64 %140, 8
  br i1 %141, label %142, label %181

142:                                              ; preds = %137
  %143 = load ptr, ptr %6, align 8
  %144 = getelementptr inbounds %struct._zend_string, ptr %143, i32 0, i32 3
  %145 = getelementptr inbounds [1 x i8], ptr %144, i64 0, i64 0
  %146 = load ptr, ptr %6, align 8
  %147 = getelementptr inbounds %struct._zend_string, ptr %146, i32 0, i32 2
  %148 = load i64, ptr %147, align 8
  %149 = call i32 @zend_binary_strcasecmp(ptr noundef %145, i64 noundef %148, ptr noundef @.str.28, i64 noundef 8)
  %150 = icmp ne i32 %149, 0
  br i1 %150, label %181, label %151

151:                                              ; preds = %142
  %152 = load ptr, ptr %7, align 8
  %153 = getelementptr inbounds %struct._xmlNode, ptr %152, i32 0, i32 5
  %154 = load ptr, ptr %153, align 8
  %155 = icmp eq ptr %154, null
  br i1 %155, label %156, label %157

156:                                              ; preds = %151
  store ptr null, ptr %5, align 8
  br label %195

157:                                              ; preds = %151
  %158 = load ptr, ptr %7, align 8
  %159 = getelementptr inbounds %struct._xmlNode, ptr %158, i32 0, i32 5
  %160 = load ptr, ptr %159, align 8
  %161 = load ptr, ptr %9, align 8
  %162 = call i32 @dom_hierarchy(ptr noundef %160, ptr noundef %161)
  %163 = icmp eq i32 %162, -1
  br i1 %163, label %164, label %169

164:                                              ; preds = %157
  %165 = load ptr, ptr %8, align 8
  %166 = getelementptr inbounds %struct._dom_object, ptr %165, i32 0, i32 1
  %167 = load ptr, ptr %166, align 8
  %168 = call i32 @dom_get_strict_error(ptr noundef %167)
  call void @php_dom_throw_error(i32 noundef 3, i32 noundef %168)
  store ptr inttoptr (i64 -1 to ptr), ptr %5, align 8
  br label %195

169:                                              ; preds = %157
  %170 = load ptr, ptr %9, align 8
  %171 = load ptr, ptr %8, align 8
  %172 = load ptr, ptr %7, align 8
  %173 = getelementptr inbounds %struct._xmlNode, ptr %172, i32 0, i32 8
  %174 = load ptr, ptr %173, align 8
  %175 = call zeroext i1 @php_dom_adopt_node(ptr noundef %170, ptr noundef %171, ptr noundef %174)
  br i1 %175, label %177, label %176

176:                                              ; preds = %169
  store ptr inttoptr (i64 -1 to ptr), ptr %5, align 8
  br label %195

177:                                              ; preds = %169
  %178 = load ptr, ptr %7, align 8
  %179 = load ptr, ptr %9, align 8
  %180 = call ptr @xmlAddNextSibling(ptr noundef %178, ptr noundef %179)
  store ptr %180, ptr %9, align 8
  br label %186

181:                                              ; preds = %142, %137
  %182 = load ptr, ptr %8, align 8
  %183 = getelementptr inbounds %struct._dom_object, ptr %182, i32 0, i32 1
  %184 = load ptr, ptr %183, align 8
  %185 = call i32 @dom_get_strict_error(ptr noundef %184)
  call void @php_dom_throw_error(i32 noundef 12, i32 noundef %185)
  store ptr inttoptr (i64 -1 to ptr), ptr %5, align 8
  br label %195

186:                                              ; preds = %177
  br label %187

187:                                              ; preds = %186, %133
  br label %188

188:                                              ; preds = %187, %100
  br label %189

189:                                              ; preds = %188, %49
  %190 = load ptr, ptr %7, align 8
  %191 = getelementptr inbounds %struct._xmlNode, ptr %190, i32 0, i32 8
  %192 = load ptr, ptr %191, align 8
  %193 = load ptr, ptr %9, align 8
  call void @dom_reconcile_ns(ptr noundef %192, ptr noundef %193)
  %194 = load ptr, ptr %9, align 8
  store ptr %194, ptr %5, align 8
  br label %195

195:                                              ; preds = %189, %181, %176, %164, %156, %132, %120, %84, %72, %48, %36, %28
  %196 = load ptr, ptr %5, align 8
  ret ptr %196
}