; Function Attrs: nounwind uwtable
define internal fastcc noundef ptr @dom_insert_adjacent(ptr noundef %0, ptr noundef %1, ptr noundef %2, ptr noundef %3) unnamed_addr #0 {
  %5 = getelementptr inbounds i8, ptr %0, i64 16
  %6 = load i64, ptr %5, align 8
  %7 = icmp eq i64 %6, 11
  br i1 %7, label %8, label %28

8:                                                ; preds = %4
  %9 = getelementptr inbounds i8, ptr %0, i64 24
  %10 = tail call i32 @zend_binary_strcasecmp(ptr noundef nonnull %9, i64 noundef 11, ptr noundef nonnull @.str.25, i64 noundef 11) #8
  %.not = icmp eq i32 %10, 0
  br i1 %.not, label %11, label %thread-pre-split

11:                                               ; preds = %8
  %12 = getelementptr inbounds i8, ptr %1, i64 40
  %13 = load ptr, ptr %12, align 8
  %14 = icmp eq ptr %13, null
  br i1 %14, label %102, label %15

15:                                               ; preds = %11
  %16 = tail call i32 @dom_hierarchy(ptr noundef nonnull %13, ptr noundef %3) #8
  %17 = icmp eq i32 %16, -1
  br i1 %17, label %18, label %22

18:                                               ; preds = %15
  %19 = getelementptr inbounds i8, ptr %2, i64 8
  %20 = load ptr, ptr %19, align 8
  %21 = tail call i32 @dom_get_strict_error(ptr noundef %20) #8
  tail call void @php_dom_throw_error(i32 noundef 3, i32 noundef %21) #8
  br label %102

22:                                               ; preds = %15
  %23 = getelementptr inbounds i8, ptr %1, i64 64
  %24 = load ptr, ptr %23, align 8
  %25 = tail call zeroext i1 @php_dom_adopt_node(ptr noundef %3, ptr noundef %2, ptr noundef %24) #8
  br i1 %25, label %26, label %102

26:                                               ; preds = %22
  %27 = tail call ptr @xmlAddPrevSibling(ptr noundef nonnull %1, ptr noundef %3) #8
  br label %99

thread-pre-split:                                 ; preds = %8
  %.pr = load i64, ptr %5, align 8
  br label %28

28:                                               ; preds = %thread-pre-split, %4
  %29 = phi i64 [ %.pr, %thread-pre-split ], [ %6, %4 ]
  %30 = icmp eq i64 %29, 10
  br i1 %30, label %31, label %53

31:                                               ; preds = %28
  %32 = getelementptr inbounds i8, ptr %0, i64 24
  %33 = tail call i32 @zend_binary_strcasecmp(ptr noundef nonnull %32, i64 noundef 10, ptr noundef nonnull @.str.26, i64 noundef 10) #8
  %.not62 = icmp eq i32 %33, 0
  br i1 %.not62, label %34, label %._crit_edge

._crit_edge:                                      ; preds = %31
  %.pre = load i64, ptr %5, align 8
  br label %53

34:                                               ; preds = %31
  %35 = tail call i32 @dom_hierarchy(ptr noundef %1, ptr noundef %3) #8
  %36 = icmp eq i32 %35, -1
  br i1 %36, label %37, label %41

37:                                               ; preds = %34
  %38 = getelementptr inbounds i8, ptr %2, i64 8
  %39 = load ptr, ptr %38, align 8
  %40 = tail call i32 @dom_get_strict_error(ptr noundef %39) #8
  tail call void @php_dom_throw_error(i32 noundef 3, i32 noundef %40) #8
  br label %102

41:                                               ; preds = %34
  %42 = getelementptr inbounds i8, ptr %1, i64 64
  %43 = load ptr, ptr %42, align 8
  %44 = tail call zeroext i1 @php_dom_adopt_node(ptr noundef %3, ptr noundef %2, ptr noundef %43) #8
  br i1 %44, label %45, label %102

45:                                               ; preds = %41
  %46 = getelementptr inbounds i8, ptr %1, i64 24
  %47 = load ptr, ptr %46, align 8
  %48 = icmp eq ptr %47, null
  br i1 %48, label %49, label %51

49:                                               ; preds = %45
  %50 = tail call ptr @xmlAddChild(ptr noundef nonnull %1, ptr noundef %3) #8
  br label %99

51:                                               ; preds = %45
  %52 = tail call ptr @xmlAddPrevSibling(ptr noundef nonnull %47, ptr noundef %3) #8
  br label %99

53:                                               ; preds = %._crit_edge, %28
  %54 = phi i64 [ %.pre, %._crit_edge ], [ %29, %28 ]
  %55 = icmp eq i64 %54, 9
  br i1 %55, label %56, label %72

56:                                               ; preds = %53
  %57 = getelementptr inbounds i8, ptr %0, i64 24
  %58 = tail call i32 @zend_binary_strcasecmp(ptr noundef nonnull %57, i64 noundef 9, ptr noundef nonnull @.str.27, i64 noundef 9) #8
  %.not63 = icmp eq i32 %58, 0
  br i1 %.not63, label %59, label %thread-pre-split65

59:                                               ; preds = %56
  %60 = tail call i32 @dom_hierarchy(ptr noundef %1, ptr noundef %3) #8
  %61 = icmp eq i32 %60, -1
  br i1 %61, label %62, label %66

62:                                               ; preds = %59
  %63 = getelementptr inbounds i8, ptr %2, i64 8
  %64 = load ptr, ptr %63, align 8
  %65 = tail call i32 @dom_get_strict_error(ptr noundef %64) #8
  tail call void @php_dom_throw_error(i32 noundef 3, i32 noundef %65) #8
  br label %102

66:                                               ; preds = %59
  %67 = getelementptr inbounds i8, ptr %1, i64 64
  %68 = load ptr, ptr %67, align 8
  %69 = tail call zeroext i1 @php_dom_adopt_node(ptr noundef %3, ptr noundef %2, ptr noundef %68) #8
  br i1 %69, label %70, label %102

70:                                               ; preds = %66
  %71 = tail call ptr @xmlAddChild(ptr noundef nonnull %1, ptr noundef %3) #8
  br label %99

thread-pre-split65:                               ; preds = %56
  %.pr66 = load i64, ptr %5, align 8
  br label %72

72:                                               ; preds = %thread-pre-split65, %53
  %73 = phi i64 [ %.pr66, %thread-pre-split65 ], [ %54, %53 ]
  %74 = icmp eq i64 %73, 8
  br i1 %74, label %75, label %95

75:                                               ; preds = %72
  %76 = getelementptr inbounds i8, ptr %0, i64 24
  %77 = tail call i32 @zend_binary_strcasecmp(ptr noundef nonnull %76, i64 noundef 8, ptr noundef nonnull @.str.28, i64 noundef 8) #8
  %.not64 = icmp eq i32 %77, 0
  br i1 %.not64, label %78, label %95

78:                                               ; preds = %75
  %79 = getelementptr inbounds i8, ptr %1, i64 40
  %80 = load ptr, ptr %79, align 8
  %81 = icmp eq ptr %80, null
  br i1 %81, label %102, label %82

82:                                               ; preds = %78
  %83 = tail call i32 @dom_hierarchy(ptr noundef nonnull %80, ptr noundef %3) #8
  %84 = icmp eq i32 %83, -1
  br i1 %84, label %85, label %89

85:                                               ; preds = %82
  %86 = getelementptr inbounds i8, ptr %2, i64 8
  %87 = load ptr, ptr %86, align 8
  %88 = tail call i32 @dom_get_strict_error(ptr noundef %87) #8
  tail call void @php_dom_throw_error(i32 noundef 3, i32 noundef %88) #8
  br label %102

89:                                               ; preds = %82
  %90 = getelementptr inbounds i8, ptr %1, i64 64
  %91 = load ptr, ptr %90, align 8
  %92 = tail call zeroext i1 @php_dom_adopt_node(ptr noundef %3, ptr noundef %2, ptr noundef %91) #8
  br i1 %92, label %93, label %102

93:                                               ; preds = %89
  %94 = tail call ptr @xmlAddNextSibling(ptr noundef nonnull %1, ptr noundef %3) #8
  br label %99

95:                                               ; preds = %75, %72
  %96 = getelementptr inbounds i8, ptr %2, i64 8
  %97 = load ptr, ptr %96, align 8
  %98 = tail call i32 @dom_get_strict_error(ptr noundef %97) #8
  tail call void @php_dom_throw_error(i32 noundef 12, i32 noundef %98) #8
  br label %102

99:                                               ; preds = %51, %49, %93, %70, %26
  %.0 = phi ptr [ %94, %93 ], [ %71, %70 ], [ %50, %49 ], [ %52, %51 ], [ %27, %26 ]
  %100 = getelementptr inbounds i8, ptr %1, i64 64
  %101 = load ptr, ptr %100, align 8
  tail call void @dom_reconcile_ns(ptr noundef %101, ptr noundef %.0) #8
  br label %102

102:                                              ; preds = %89, %78, %66, %41, %22, %11, %99, %95, %85, %62, %37, %18
  %.054 = phi ptr [ inttoptr (i64 -1 to ptr), %95 ], [ inttoptr (i64 -1 to ptr), %85 ], [ %.0, %99 ], [ inttoptr (i64 -1 to ptr), %62 ], [ inttoptr (i64 -1 to ptr), %37 ], [ inttoptr (i64 -1 to ptr), %18 ], [ null, %11 ], [ inttoptr (i64 -1 to ptr), %22 ], [ inttoptr (i64 -1 to ptr), %41 ], [ inttoptr (i64 -1 to ptr), %66 ], [ null, %78 ], [ inttoptr (i64 -1 to ptr), %89 ]
  ret ptr %.054
}